target datalayout = "e-m:e-p270:32:32-p271:32:32-p272:64:64-i64:64-i128:128-f80:128-n8:16:32:64-S128"
target triple = "x86_64-pc-linux-gnu"

%struct.wtapng_block_s = type { i32, i32, ptr, ptr, ptr }
%struct.section_info_t = type { i32, i16, i16, ptr, i64, i32, i64, i64 }

; Function Attrs: nounwind uwtable
define void @pcapng_process_uint64_option(ptr noundef %0, ptr noundef %1, i32 noundef %2, i16 noundef zeroext %3, i16 noundef zeroext %4, ptr noundef %5) #0 {
  %7 = alloca ptr, align 8
  %8 = alloca ptr, align 8
  %9 = alloca i32, align 4
  %10 = alloca i16, align 2
  %11 = alloca i16, align 2
  %12 = alloca ptr, align 8
  %13 = alloca i64, align 8
  store ptr %0, ptr %7, align 8
  store ptr %1, ptr %8, align 8
  store i32 %2, ptr %9, align 4
  store i16 %3, ptr %10, align 2
  store i16 %4, ptr %11, align 2
  store ptr %5, ptr %12, align 8
  %14 = load i16, ptr %11, align 2
  %15 = zext i16 %14 to i32
  %16 = icmp eq i32 %15, 8
  br i1 %16, label %17, label %101

17:                                               ; preds = %6
  %18 = load ptr, ptr %12, align 8
  call void @llvm.memcpy.p0.p0.i64(ptr align 8 %13, ptr align 1 %18, i64 8, i1 false)
  %19 = load i32, ptr %9, align 4
  switch i32 %19, label %92 [
    i32 0, label %20
    i32 1, label %58
    i32 2, label %90
  ]

20:                                               ; preds = %17
  %21 = load ptr, ptr %8, align 8
  %22 = getelementptr inbounds %struct.section_info_t, ptr %21, i32 0, i32 0
  %23 = load i32, ptr %22, align 8
  %24 = icmp ne i32 %23, 0
  br i1 %24, label %25, label %57

25:                                               ; preds = %20
  %26 = load i64, ptr %13, align 8
  %27 = and i64 %26, 255
  %28 = shl i64 %27, 56
  %29 = load i64, ptr %13, align 8
  %30 = and i64 %29, 65280
  %31 = shl i64 %30, 40
  %32 = or i64 %28, %31
  %33 = load i64, ptr %13, align 8
  %34 = and i64 %33, 16711680
  %35 = shl i64 %34, 24
  %36 = or i64 %32, %35
  %37 = load i64, ptr %13, align 8
  %38 = and i64 %37, 4278190080
  %39 = shl i64 %38, 8
  %40 = or i64 %36, %39
  %41 = load i64, ptr %13, align 8
  %42 = and i64 %41, 1095216660480
  %43 = lshr i64 %42, 8
  %44 = or i64 %40, %43
  %45 = load i64, ptr %13, align 8
  %46 = and i64 %45, 280375465082880
  %47 = lshr i64 %46, 24
  %48 = or i64 %44, %47
  %49 = load i64, ptr %13, align 8
  %50 = and i64 %49, 71776119061217280
  %51 = lshr i64 %50, 40
  %52 = or i64 %48, %51
  %53 = load i64, ptr %13, align 8
  %54 = and i64 %53, -72057594037927936
  %55 = lshr i64 %54, 56
  %56 = or i64 %52, %55
  store i64 %56, ptr %13, align 8
  br label %57

57:                                               ; preds = %25, %20
  br label %93

58:                                               ; preds = %17
  %59 = load i64, ptr %13, align 8
  %60 = and i64 %59, 255
  %61 = shl i64 %60, 56
  %62 = load i64, ptr %13, align 8
  %63 = and i64 %62, 65280
  %64 = shl i64 %63, 40
  %65 = or i64 %61, %64
  %66 = load i64, ptr %13, align 8
  %67 = and i64 %66, 16711680
  %68 = shl i64 %67, 24
  %69 = or i64 %65, %68
  %70 = load i64, ptr %13, align 8
  %71 = and i64 %70, 4278190080
  %72 = shl i64 %71, 8
  %73 = or i64 %69, %72
  %74 = load i64, ptr %13, align 8
  %75 = and i64 %74, 1095216660480
  %76 = lshr i64 %75, 8
  %77 = or i64 %73, %76
  %78 = load i64, ptr %13, align 8
  %79 = and i64 %78, 280375465082880
  %80 = lshr i64 %79, 24
  %81 = or i64 %77, %80
  %82 = load i64, ptr %13, align 8
  %83 = and i64 %82, 71776119061217280
  %84 = lshr i64 %83, 40
  %85 = or i64 %81, %84
  %86 = load i64, ptr %13, align 8
  %87 = and i64 %86, -72057594037927936
  %88 = lshr i64 %87, 56
  %89 = or i64 %85, %88
  store i64 %89, ptr %13, align 8
  br label %93

90:                                               ; preds = %17
  %91 = load i64, ptr %13, align 8
  store i64 %91, ptr %13, align 8
  br label %93

92:                                               ; preds = %17
  br label %101

93:                                               ; preds = %90, %58, %57
  %94 = load ptr, ptr %7, align 8
  %95 = getelementptr inbounds %struct.wtapng_block_s, ptr %94, i32 0, i32 2
  %96 = load ptr, ptr %95, align 8
  %97 = load i16, ptr %10, align 2
  %98 = zext i16 %97 to i32
  %99 = load i64, ptr %13, align 8
  %100 = call i32 @wtap_block_add_uint64_option(ptr noundef %96, i32 noundef %98, i64 noundef %99)
  br label %101

101:                                              ; preds = %93, %92, %6
  ret void
}